; Function Attrs: nounwind uwtable
define ptr @l___private_Lean_Data_FuzzyMatching_0__Lean_FuzzyMatching_fuzzyMatchCore_allowMatch___lambda__2___boxed(ptr noundef %0, ptr noundef %1, ptr noundef %2) local_unnamed_addr #0 {
  %4 = ptrtoint ptr %0 to i64
  %5 = and i64 %4, 1
  %.not = icmp eq i64 %5, 0
  br i1 %.not, label %6, label %lean_dec.exit9

6:                                                ; preds = %3
  %7 = load i32, ptr %0, align 4, !tbaa !5
  %8 = icmp sgt i32 %7, 1
  br i1 %8, label %9, label %11, !prof !10

9:                                                ; preds = %6
  %10 = add nsw i32 %7, -1
  store i32 %10, ptr %0, align 4, !tbaa !5
  br label %lean_dec.exit9

11:                                               ; preds = %6
  %.not.i = icmp eq i32 %7, 0
  br i1 %.not.i, label %lean_dec.exit9, label %12

12:                                               ; preds = %11
  tail call void @lean_dec_ref_cold(ptr noundef nonnull %0) #7
  br label %lean_dec.exit9

lean_dec.exit9:                                   ; preds = %12, %11, %9, %3
  %13 = ptrtoint ptr %1 to i64
  %14 = and i64 %13, 1
  %.not14 = icmp eq i64 %14, 0
  br i1 %.not14, label %15, label %lean_dec.exit8

15:                                               ; preds = %lean_dec.exit9
  %16 = load i32, ptr %1, align 4, !tbaa !5
  %17 = icmp sgt i32 %16, 1
  br i1 %17, label %18, label %20, !prof !10

18:                                               ; preds = %15
  %19 = add nsw i32 %16, -1
  store i32 %19, ptr %1, align 4, !tbaa !5
  br label %lean_dec.exit8

20:                                               ; preds = %15
  %.not.i10 = icmp eq i32 %16, 0
  br i1 %.not.i10, label %lean_dec.exit8, label %21

21:                                               ; preds = %20
  tail call void @lean_dec_ref_cold(ptr noundef nonnull %1) #7
  br label %lean_dec.exit8

lean_dec.exit8:                                   ; preds = %21, %20, %18, %lean_dec.exit9
  %22 = and i64 %4, 510
  %23 = icmp eq i64 %22, 0
  br i1 %23, label %24, label %lean_dec.exit.i

24:                                               ; preds = %lean_dec.exit8
  %25 = and i64 %13, 510
  %26 = icmp eq i64 %25, 0
  br i1 %26, label %27, label %l___private_Lean_Data_FuzzyMatching_0__Lean_FuzzyMatching_fuzzyMatchCore_allowMatch___lambda__2.exit

27:                                               ; preds = %24
  %28 = load ptr, ptr @l___private_Lean_Data_FuzzyMatching_0__Lean_FuzzyMatching_fuzzyMatchCore_allowMatch___lambda__2___closed__2, align 8, !tbaa !11
  br label %l___private_Lean_Data_FuzzyMatching_0__Lean_FuzzyMatching_fuzzyMatchCore_allowMatch___lambda__2.exit

lean_dec.exit.i:                                  ; preds = %lean_dec.exit8
  %29 = load ptr, ptr @l___private_Lean_Data_FuzzyMatching_0__Lean_FuzzyMatching_fuzzyMatchCore_allowMatch___lambda__2___closed__2, align 8, !tbaa !11
  br label %l___private_Lean_Data_FuzzyMatching_0__Lean_FuzzyMatching_fuzzyMatchCore_allowMatch___lambda__2.exit

l___private_Lean_Data_FuzzyMatching_0__Lean_FuzzyMatching_fuzzyMatchCore_allowMatch___lambda__2.exit: ; preds = %24, %27, %lean_dec.exit.i
  %.1.i = phi ptr [ %29, %lean_dec.exit.i ], [ %28, %27 ], [ inttoptr (i64 1 to ptr), %24 ]
  %30 = ptrtoint ptr %2 to i64
  %31 = and i64 %30, 1
  %.not15 = icmp eq i64 %31, 0
  br i1 %.not15, label %32, label %lean_dec.exit

32:                                               ; preds = %l___private_Lean_Data_FuzzyMatching_0__Lean_FuzzyMatching_fuzzyMatchCore_allowMatch___lambda__2.exit
  %33 = load i32, ptr %2, align 4, !tbaa !5
  %34 = icmp sgt i32 %33, 1
  br i1 %34, label %35, label %37, !prof !10

35:                                               ; preds = %32
  %36 = add nsw i32 %33, -1
  store i32 %36, ptr %2, align 4, !tbaa !5
  br label %lean_dec.exit

37:                                               ; preds = %32
  %.not.i12 = icmp eq i32 %33, 0
  br i1 %.not.i12, label %lean_dec.exit, label %38

38:                                               ; preds = %37
  tail call void @lean_dec_ref_cold(ptr noundef nonnull %2) #7
  br label %lean_dec.exit

lean_dec.exit:                                    ; preds = %38, %37, %35, %l___private_Lean_Data_FuzzyMatching_0__Lean_FuzzyMatching_fuzzyMatchCore_allowMatch___lambda__2.exit
  ret ptr %.1.i
}